; Function Attrs: nounwind uwtable
define ptr @l_Lean_Elab_Command_NameGen_mkBaseNameWithSuffix_x27___lambda__3(ptr noundef %0, ptr noundef %1, ptr noundef %2, ptr noundef %3, ptr noundef %4, ptr noundef %5, ptr noundef %6, ptr noundef %7, ptr noundef %8, ptr noundef %9) #1 {
  tail call void @lean_inc_heartbeat() #4
  %11 = tail call noalias ptr @mi_malloc_small(i64 noundef 48) #4
  %12 = icmp eq ptr %11, null
  br i1 %12, label %13, label %lean_alloc_closure.exit

13:                                               ; preds = %10
  tail call void @lean_internal_panic_out_of_memory() #5
  unreachable

lean_alloc_closure.exit:                          ; preds = %10
  %14 = getelementptr inbounds nuw i8, ptr %11, i64 4
  store i32 1, ptr %11, align 4, !tbaa !4
  store i32 -184549328, ptr %14, align 4
  %15 = getelementptr inbounds nuw i8, ptr %11, i64 8
  store ptr @l_Lean_Elab_Command_NameGen_mkBaseNameWithSuffix_x27___lambda__2___boxed, ptr %15, align 8, !tbaa !9
  %16 = getelementptr inbounds nuw i8, ptr %11, i64 16
  store i16 10, ptr %16, align 8, !tbaa !18
  %17 = getelementptr inbounds nuw i8, ptr %11, i64 18
  store i16 3, ptr %17, align 2, !tbaa !18
  %18 = getelementptr inbounds nuw i8, ptr %11, i64 24
  store ptr %0, ptr %18, align 8, !tbaa !9
  %19 = getelementptr inbounds nuw i8, ptr %11, i64 32
  store ptr %2, ptr %19, align 8, !tbaa !9
  %20 = getelementptr inbounds nuw i8, ptr %11, i64 40
  store ptr %1, ptr %20, align 8, !tbaa !9
  %21 = tail call ptr @l_Lean_Elab_Term_withoutErrToSorryImp___rarg(ptr noundef nonnull %11, ptr noundef %3, ptr noundef %4, ptr noundef %5, ptr noundef %6, ptr noundef %7, ptr noundef %8, ptr noundef %9) #4
  ret ptr %21
}